; Function Attrs: mustprogress nofree norecurse nosync nounwind willreturn memory(read, argmem: readwrite, inaccessiblemem: none) uwtable
define hidden void @_ZN5Parse15load_state_fromEPNS_5BlockE(ptr nocapture noundef nonnull writeonly align 8 dereferenceable(352) %0, ptr noundef %1) local_unnamed_addr #3 align 2 {
  %3 = getelementptr inbounds i8, ptr %0, i64 256
  store ptr %1, ptr %3, align 8
  %4 = getelementptr inbounds i8, ptr %1, i64 24
  %5 = load ptr, ptr %4, align 8
  %6 = getelementptr inbounds i8, ptr %0, i64 40
  store ptr %5, ptr %6, align 8
  %7 = load ptr, ptr %1, align 8
  %8 = getelementptr inbounds i8, ptr %7, i64 56
  %9 = load ptr, ptr %8, align 8
  %10 = getelementptr inbounds i8, ptr %9, i64 8
  %11 = load i32, ptr %10, align 8
  %12 = getelementptr inbounds i8, ptr %0, i64 80
  store i32 %11, ptr %12, align 8
  ret void
}